target datalayout = "e-m:e-p270:32:32-p271:32:32-p272:64:64-i64:64-i128:128-f80:128-n8:16:32:64-S128"
target triple = "x86_64-pc-linux-gnu"

%struct.Msat_Solver_t_ = type { i32, i32, ptr, ptr, double, double, ptr, ptr, double, double, ptr, ptr, ptr, i32, i32, ptr, ptr, ptr, ptr, ptr, ptr, i32, double, i32, double, ptr, ptr, ptr, ptr, i32, ptr, ptr, ptr, ptr, %struct.Msat_SolverStats_t_, i32, i32, i32, i32, i32, i32 }
%struct.Msat_SolverStats_t_ = type { i64, i64, i64, i64, i64, i64 }

; Function Attrs: nounwind uwtable
define void @Msat_SolverRemoveLearned(ptr noundef %0) #0 {
  %2 = alloca ptr, align 8
  %3 = alloca ptr, align 8
  %4 = alloca i32, align 4
  %5 = alloca i32, align 4
  store ptr %0, ptr %2, align 8, !tbaa !3
  call void @llvm.lifetime.start.p0(i64 8, ptr %3) #4
  call void @llvm.lifetime.start.p0(i64 4, ptr %4) #4
  call void @llvm.lifetime.start.p0(i64 4, ptr %5) #4
  %6 = load ptr, ptr %2, align 8, !tbaa !3
  %7 = getelementptr inbounds nuw %struct.Msat_Solver_t_, ptr %6, i32 0, i32 3
  %8 = load ptr, ptr %7, align 8, !tbaa !48
  %9 = call i32 @Msat_ClauseVecReadSize(ptr noundef %8)
  store i32 %9, ptr %4, align 4, !tbaa !8
  %10 = load ptr, ptr %2, align 8, !tbaa !3
  %11 = getelementptr inbounds nuw %struct.Msat_Solver_t_, ptr %10, i32 0, i32 3
  %12 = load ptr, ptr %11, align 8, !tbaa !48
  %13 = call ptr @Msat_ClauseVecReadArray(ptr noundef %12)
  store ptr %13, ptr %3, align 8, !tbaa !42
  store i32 0, ptr %5, align 4, !tbaa !8
  br label %14

14:                                               ; preds = %25, %1
  %15 = load i32, ptr %5, align 4, !tbaa !8
  %16 = load i32, ptr %4, align 4, !tbaa !8
  %17 = icmp slt i32 %15, %16
  br i1 %17, label %18, label %28

18:                                               ; preds = %14
  %19 = load ptr, ptr %2, align 8, !tbaa !3
  %20 = load ptr, ptr %3, align 8, !tbaa !42
  %21 = load i32, ptr %5, align 4, !tbaa !8
  %22 = sext i32 %21 to i64
  %23 = getelementptr inbounds ptr, ptr %20, i64 %22
  %24 = load ptr, ptr %23, align 8, !tbaa !27
  call void @Msat_ClauseFree(ptr noundef %19, ptr noundef %24, i32 noundef 1)
  br label %25

25:                                               ; preds = %18
  %26 = load i32, ptr %5, align 4, !tbaa !8
  %27 = add nsw i32 %26, 1
  store i32 %27, ptr %5, align 4, !tbaa !8
  br label %14, !llvm.loop !53

28:                                               ; preds = %14
  %29 = load ptr, ptr %2, align 8, !tbaa !3
  %30 = getelementptr inbounds nuw %struct.Msat_Solver_t_, ptr %29, i32 0, i32 3
  %31 = load ptr, ptr %30, align 8, !tbaa !48
  call void @Msat_ClauseVecShrink(ptr noundef %31, i32 noundef 0)
  %32 = load ptr, ptr %2, align 8, !tbaa !3
  %33 = getelementptr inbounds nuw %struct.Msat_Solver_t_, ptr %32, i32 0, i32 2
  %34 = load ptr, ptr %33, align 8, !tbaa !49
  %35 = call i32 @Msat_ClauseVecReadSize(ptr noundef %34)
  %36 = load ptr, ptr %2, align 8, !tbaa !3
  %37 = getelementptr inbounds nuw %struct.Msat_Solver_t_, ptr %36, i32 0, i32 0
  store i32 %35, ptr %37, align 8, !tbaa !52
  store i32 0, ptr %5, align 4, !tbaa !8
  br label %38

38:                                               ; preds = %51, %28
  %39 = load i32, ptr %5, align 4, !tbaa !8
  %40 = load ptr, ptr %2, align 8, !tbaa !3
  %41 = getelementptr inbounds nuw %struct.Msat_Solver_t_, ptr %40, i32 0, i32 14
  %42 = load i32, ptr %41, align 4, !tbaa !54
  %43 = icmp slt i32 %39, %42
  br i1 %43, label %44, label %54

44:                                               ; preds = %38
  %45 = load ptr, ptr %2, align 8, !tbaa !3
  %46 = getelementptr inbounds nuw %struct.Msat_Solver_t_, ptr %45, i32 0, i32 19
  %47 = load ptr, ptr %46, align 8, !tbaa !32
  %48 = load i32, ptr %5, align 4, !tbaa !8
  %49 = sext i32 %48 to i64
  %50 = getelementptr inbounds ptr, ptr %47, i64 %49
  store ptr null, ptr %50, align 8, !tbaa !27
  br label %51

51:                                               ; preds = %44
  %52 = load i32, ptr %5, align 4, !tbaa !8
  %53 = add nsw i32 %52, 1
  store i32 %53, ptr %5, align 4, !tbaa !8
  br label %38, !llvm.loop !55

54:                                               ; preds = %38
  call void @llvm.lifetime.end.p0(i64 4, ptr %5) #4
  call void @llvm.lifetime.end.p0(i64 4, ptr %4) #4
  call void @llvm.lifetime.end.p0(i64 8, ptr %3) #4
  ret void
}