; Function Attrs: nounwind uwtable
define void @Msat_SolverRemoveLearned(ptr noundef %0) local_unnamed_addr #0 {
  %2 = getelementptr inbounds nuw i8, ptr %0, i64 16
  %3 = load ptr, ptr %2, align 8, !tbaa !46
  %4 = tail call i32 @Msat_ClauseVecReadSize(ptr noundef %3) #7
  %5 = load ptr, ptr %2, align 8, !tbaa !46
  %6 = tail call ptr @Msat_ClauseVecReadArray(ptr noundef %5) #7
  %7 = icmp sgt i32 %4, 0
  br i1 %7, label %.lr.ph.preheader, label %._crit_edge

.lr.ph.preheader:                                 ; preds = %1
  %wide.trip.count = zext nneg i32 %4 to i64
  br label %.lr.ph

.lr.ph:                                           ; preds = %.lr.ph.preheader, %.lr.ph
  %indvars.iv = phi i64 [ 0, %.lr.ph.preheader ], [ %indvars.iv.next, %.lr.ph ]
  %8 = getelementptr inbounds nuw ptr, ptr %6, i64 %indvars.iv
  %9 = load ptr, ptr %8, align 8, !tbaa !29
  tail call void @Msat_ClauseFree(ptr noundef %0, ptr noundef %9, i32 noundef 1) #7
  %indvars.iv.next = add nuw nsw i64 %indvars.iv, 1
  %exitcond.not = icmp eq i64 %indvars.iv.next, %wide.trip.count
  br i1 %exitcond.not, label %._crit_edge, label %.lr.ph, !llvm.loop !47

._crit_edge:                                      ; preds = %.lr.ph, %1
  %10 = load ptr, ptr %2, align 8, !tbaa !46
  tail call void @Msat_ClauseVecShrink(ptr noundef %10, i32 noundef 0) #7
  %11 = getelementptr inbounds nuw i8, ptr %0, i64 8
  %12 = load ptr, ptr %11, align 8, !tbaa !48
  %13 = tail call i32 @Msat_ClauseVecReadSize(ptr noundef %12) #7
  store i32 %13, ptr %0, align 8, !tbaa !45
  %14 = getelementptr inbounds nuw i8, ptr %0, i64 100
  %15 = load i32, ptr %14, align 4, !tbaa !49
  %16 = icmp sgt i32 %15, 0
  br i1 %16, label %.lr.ph18, label %._crit_edge19

.lr.ph18:                                         ; preds = %._crit_edge
  %17 = getelementptr inbounds nuw i8, ptr %0, i64 136
  %18 = load ptr, ptr %17, align 8, !tbaa !28
  %19 = zext nneg i32 %15 to i64
  %20 = shl nuw nsw i64 %19, 3
  tail call void @llvm.memset.p0.i64(ptr align 8 %18, i8 0, i64 %20, i1 false), !tbaa !29
  br label %._crit_edge19

._crit_edge19:                                    ; preds = %.lr.ph18, %._crit_edge
  ret void
}